; Function Attrs: mustprogress nofree norecurse nosync nounwind willreturn memory(argmem: read) uwtable
define i32 @ufmt_getType_75(ptr nocapture noundef readonly %fmt, ptr nocapture noundef readonly %status) local_unnamed_addr #9 {
entry:
  %0 = load i32, ptr %status, align 4
  %cmp.i = icmp slt i32 %0, 1
  br i1 %cmp.i, label %if.end, label %return

if.end:                                           ; preds = %entry
  %fType.i = getelementptr inbounds i8, ptr %fmt, i64 40
  %1 = load i32, ptr %fType.i, align 8
  br label %return

return:                                           ; preds = %entry, %if.end
  %retval.0 = phi i32 [ %1, %if.end ], [ 7, %entry ]
  ret i32 %retval.0
}